target datalayout = "e-m:e-p270:32:32-p271:32:32-p272:64:64-i64:64-i128:128-f80:128-n8:16:32:64-S128"
target triple = "x86_64-pc-linux-gnu"

; Function Attrs: mustprogress uwtable
define internal noundef i32 @_ZL16CalcAllowedDepthPKw(ptr noundef %0) #0 {
  %2 = alloca ptr, align 8
  %3 = alloca i32, align 4
  %4 = alloca i8, align 1
  %5 = alloca i8, align 1
  store ptr %0, ptr %2, align 8, !tbaa !8
  call void @llvm.lifetime.start.p0(i64 4, ptr %3) #11
  store i32 0, ptr %3, align 4, !tbaa !87
  br label %6

6:                                                ; preds = %85, %1
  %7 = load ptr, ptr %2, align 8, !tbaa !8
  %8 = load i32, ptr %7, align 4, !tbaa !81
  %9 = icmp ne i32 %8, 0
  br i1 %9, label %10, label %88

10:                                               ; preds = %6
  %11 = load ptr, ptr %2, align 8, !tbaa !8
  %12 = getelementptr inbounds i32, ptr %11, i64 0
  %13 = load i32, ptr %12, align 4, !tbaa !81
  %14 = call noundef zeroext i1 @_Z9IsPathDivi(i32 noundef %13)
  br i1 %14, label %15, label %85

15:                                               ; preds = %10
  %16 = load ptr, ptr %2, align 8, !tbaa !8
  %17 = getelementptr inbounds i32, ptr %16, i64 1
  %18 = load i32, ptr %17, align 4, !tbaa !81
  %19 = icmp ne i32 %18, 0
  br i1 %19, label %20, label %85

20:                                               ; preds = %15
  %21 = load ptr, ptr %2, align 8, !tbaa !8
  %22 = getelementptr inbounds i32, ptr %21, i64 1
  %23 = load i32, ptr %22, align 4, !tbaa !81
  %24 = call noundef zeroext i1 @_Z9IsPathDivi(i32 noundef %23)
  br i1 %24, label %85, label %25

25:                                               ; preds = %20
  call void @llvm.lifetime.start.p0(i64 1, ptr %4) #11
  %26 = load ptr, ptr %2, align 8, !tbaa !8
  %27 = getelementptr inbounds i32, ptr %26, i64 1
  %28 = load i32, ptr %27, align 4, !tbaa !81
  %29 = icmp eq i32 %28, 46
  br i1 %29, label %30, label %42

30:                                               ; preds = %25
  %31 = load ptr, ptr %2, align 8, !tbaa !8
  %32 = getelementptr inbounds i32, ptr %31, i64 2
  %33 = load i32, ptr %32, align 4, !tbaa !81
  %34 = call noundef zeroext i1 @_Z9IsPathDivi(i32 noundef %33)
  br i1 %34, label %40, label %35

35:                                               ; preds = %30
  %36 = load ptr, ptr %2, align 8, !tbaa !8
  %37 = getelementptr inbounds i32, ptr %36, i64 2
  %38 = load i32, ptr %37, align 4, !tbaa !81
  %39 = icmp eq i32 %38, 0
  br label %40

40:                                               ; preds = %35, %30
  %41 = phi i1 [ true, %30 ], [ %39, %35 ]
  br label %42

42:                                               ; preds = %40, %25
  %43 = phi i1 [ false, %25 ], [ %41, %40 ]
  %44 = zext i1 %43 to i8
  store i8 %44, ptr %4, align 1, !tbaa !31
  call void @llvm.lifetime.start.p0(i64 1, ptr %5) #11
  %45 = load ptr, ptr %2, align 8, !tbaa !8
  %46 = getelementptr inbounds i32, ptr %45, i64 1
  %47 = load i32, ptr %46, align 4, !tbaa !81
  %48 = icmp eq i32 %47, 46
  br i1 %48, label %49, label %66

49:                                               ; preds = %42
  %50 = load ptr, ptr %2, align 8, !tbaa !8
  %51 = getelementptr inbounds i32, ptr %50, i64 2
  %52 = load i32, ptr %51, align 4, !tbaa !81
  %53 = icmp eq i32 %52, 46
  br i1 %53, label %54, label %66

54:                                               ; preds = %49
  %55 = load ptr, ptr %2, align 8, !tbaa !8
  %56 = getelementptr inbounds i32, ptr %55, i64 3
  %57 = load i32, ptr %56, align 4, !tbaa !81
  %58 = call noundef zeroext i1 @_Z9IsPathDivi(i32 noundef %57)
  br i1 %58, label %64, label %59

59:                                               ; preds = %54
  %60 = load ptr, ptr %2, align 8, !tbaa !8
  %61 = getelementptr inbounds i32, ptr %60, i64 3
  %62 = load i32, ptr %61, align 4, !tbaa !81
  %63 = icmp eq i32 %62, 0
  br label %64

64:                                               ; preds = %59, %54
  %65 = phi i1 [ true, %54 ], [ %63, %59 ]
  br label %66

66:                                               ; preds = %64, %49, %42
  %67 = phi i1 [ false, %49 ], [ false, %42 ], [ %65, %64 ]
  %68 = zext i1 %67 to i8
  store i8 %68, ptr %5, align 1, !tbaa !31
  %69 = load i8, ptr %4, align 1, !tbaa !31, !range !29, !noundef !30
  %70 = trunc i8 %69 to i1
  br i1 %70, label %77, label %71

71:                                               ; preds = %66
  %72 = load i8, ptr %5, align 1, !tbaa !31, !range !29, !noundef !30
  %73 = trunc i8 %72 to i1
  br i1 %73, label %77, label %74

74:                                               ; preds = %71
  %75 = load i32, ptr %3, align 4, !tbaa !87
  %76 = add nsw i32 %75, 1
  store i32 %76, ptr %3, align 4, !tbaa !87
  br label %84

77:                                               ; preds = %71, %66
  %78 = load i8, ptr %5, align 1, !tbaa !31, !range !29, !noundef !30
  %79 = trunc i8 %78 to i1
  br i1 %79, label %80, label %83

80:                                               ; preds = %77
  %81 = load i32, ptr %3, align 4, !tbaa !87
  %82 = add nsw i32 %81, -1
  store i32 %82, ptr %3, align 4, !tbaa !87
  br label %83

83:                                               ; preds = %80, %77
  br label %84

84:                                               ; preds = %83, %74
  call void @llvm.lifetime.end.p0(i64 1, ptr %5) #11
  call void @llvm.lifetime.end.p0(i64 1, ptr %4) #11
  br label %85

85:                                               ; preds = %84, %20, %15, %10
  %86 = load ptr, ptr %2, align 8, !tbaa !8
  %87 = getelementptr inbounds nuw i32, ptr %86, i32 1
  store ptr %87, ptr %2, align 8, !tbaa !8
  br label %6, !llvm.loop !112

88:                                               ; preds = %6
  %89 = load i32, ptr %3, align 4, !tbaa !87
  %90 = icmp slt i32 %89, 0
  br i1 %90, label %91, label %92

91:                                               ; preds = %88
  br label %94

92:                                               ; preds = %88
  %93 = load i32, ptr %3, align 4, !tbaa !87
  br label %94

94:                                               ; preds = %92, %91
  %95 = phi i32 [ 0, %91 ], [ %93, %92 ]
  call void @llvm.lifetime.end.p0(i64 4, ptr %3) #11
  ret i32 %95
}