; Function Attrs: mustprogress uwtable
define internal fastcc noundef range(i32 0, -2147483648) i32 @_ZL16CalcAllowedDepthPKw(ptr noundef readonly captures(none) %0) unnamed_addr #0 {
  %2 = load i32, ptr %0, align 4, !tbaa !80
  %.not26 = icmp eq i32 %2, 0
  br i1 %.not26, label %._crit_edge, label %.lr.ph

.lr.ph:                                           ; preds = %1, %37
  %3 = phi i32 [ %39, %37 ], [ %2, %1 ]
  %.028 = phi ptr [ %38, %37 ], [ %0, %1 ]
  %.01827 = phi i32 [ %.1, %37 ], [ 0, %1 ]
  %4 = tail call noundef zeroext i1 @_Z9IsPathDivi(i32 noundef %3)
  br i1 %4, label %5, label %37

5:                                                ; preds = %.lr.ph
  %6 = getelementptr inbounds nuw i8, ptr %.028, i64 4
  %7 = load i32, ptr %6, align 4, !tbaa !80
  %.not21 = icmp eq i32 %7, 0
  br i1 %.not21, label %37, label %8

8:                                                ; preds = %5
  %9 = tail call noundef zeroext i1 @_Z9IsPathDivi(i32 noundef %7)
  br i1 %9, label %37, label %10

10:                                               ; preds = %8
  %11 = load i32, ptr %6, align 4, !tbaa !80
  %12 = icmp eq i32 %11, 46
  br i1 %12, label %13, label %.thread.thread

13:                                               ; preds = %10
  %14 = getelementptr inbounds nuw i8, ptr %.028, i64 8
  %15 = load i32, ptr %14, align 4, !tbaa !80
  %16 = tail call noundef zeroext i1 @_Z9IsPathDivi(i32 noundef %15)
  br i1 %16, label %20, label %17

17:                                               ; preds = %13
  %18 = load i32, ptr %14, align 4, !tbaa !80
  %19 = icmp eq i32 %18, 0
  br label %20

20:                                               ; preds = %13, %17
  %.ph = phi i1 [ %19, %17 ], [ true, %13 ]
  %.pr = load i32, ptr %6, align 4, !tbaa !80
  %21 = icmp eq i32 %.pr, 46
  br i1 %21, label %22, label %.thread

22:                                               ; preds = %20
  %23 = load i32, ptr %14, align 4, !tbaa !80
  %24 = icmp eq i32 %23, 46
  br i1 %24, label %25, label %.thread

25:                                               ; preds = %22
  %26 = getelementptr inbounds nuw i8, ptr %.028, i64 12
  %27 = load i32, ptr %26, align 4, !tbaa !80
  %28 = tail call noundef zeroext i1 @_Z9IsPathDivi(i32 noundef %27)
  br i1 %28, label %.thread24, label %30

.thread24:                                        ; preds = %25
  %29 = add nsw i32 %.01827, -1
  br label %37

30:                                               ; preds = %25
  %31 = load i32, ptr %26, align 4, !tbaa !80
  %.fr = freeze i32 %31
  %32 = icmp eq i32 %.fr, 0
  %33 = or i1 %.ph, %32
  %34 = sext i1 %32 to i32
  br i1 %33, label %36, label %.thread.thread

.thread:                                          ; preds = %22, %20
  br i1 %.ph, label %36, label %.thread.thread

.thread.thread:                                   ; preds = %10, %30, %.thread
  %35 = add nsw i32 %.01827, 1
  br label %37

36:                                               ; preds = %30, %.thread
  %cond.fr31 = phi i32 [ %34, %30 ], [ 0, %.thread ]
  %spec.select = add nsw i32 %cond.fr31, %.01827
  br label %37

37:                                               ; preds = %36, %.thread24, %.thread.thread, %8, %5, %.lr.ph
  %.1 = phi i32 [ %.01827, %8 ], [ %.01827, %5 ], [ %.01827, %.lr.ph ], [ %35, %.thread.thread ], [ %29, %.thread24 ], [ %spec.select, %36 ]
  %38 = getelementptr inbounds nuw i8, ptr %.028, i64 4
  %39 = load i32, ptr %38, align 4, !tbaa !80
  %.not = icmp eq i32 %39, 0
  br i1 %.not, label %._crit_edge, label %.lr.ph, !llvm.loop !100

._crit_edge:                                      ; preds = %37, %1
  %.018.lcssa = phi i32 [ 0, %1 ], [ %.1, %37 ]
  %40 = tail call i32 @llvm.smax.i32(i32 %.018.lcssa, i32 0)
  ret i32 %40
}